; Function Attrs: null_pointer_is_valid sspstrong uwtable
define internal i32 @efs_dissect_element_ENCRYPTION_CERTIFICATE_pUserSid_(ptr noundef %0, i32 noundef %1, ptr readnone captures(none) %2, ptr noundef %3, ptr noundef readonly captures(none) %4, ptr readnone captures(none) %5) #0 {
  %7 = getelementptr i8, ptr %4, i64 25
  %.val = load i8, ptr %7, align 1, !range !6, !noundef !7
  %8 = trunc nuw i8 %.val to i1
  br i1 %8, label %efs_dissect_struct_dom_sid.exit, label %9

9:                                                ; preds = %6
  %10 = tail call i32 @dissect_nt_sid(ptr noundef %0, i32 noundef %1, ptr noundef %3, ptr noundef nonnull @.str.57, ptr noundef null, i32 noundef -1)
  br label %efs_dissect_struct_dom_sid.exit

efs_dissect_struct_dom_sid.exit:                  ; preds = %6, %9
  %.0.i = phi i32 [ %10, %9 ], [ %1, %6 ]
  ret i32 %.0.i
}